target datalayout = "e-m:e-p270:32:32-p271:32:32-p272:64:64-i64:64-i128:128-f80:128-n8:16:32:64-S128"
target triple = "x86_64-pc-linux-gnu"

%"class.llvm::Value" = type { i8, i8, i16, i32, ptr, ptr }
%"class.llvm::Twine" = type <{ %"union.llvm::Twine::Child", %"union.llvm::Twine::Child", i8, i8, [6 x i8] }>
%"union.llvm::Twine::Child" = type { %struct.anon }
%struct.anon = type { ptr, i64 }
%"class.llvm::ArrayRef.465" = type { ptr, i64 }

; Function Attrs: mustprogress nounwind uwtable
define linkonce_odr hidden noundef ptr @_ZN4llvm16cast_convert_valINS_10VectorTypeEPNS_4TypeES3_E4doitEPKS2_(ptr noundef %0) #0 comdat align 2 {
  %2 = alloca ptr, align 8
  store ptr %0, ptr %2, align 8
  %3 = load ptr, ptr %2, align 8
  ret ptr %3
}

; Function Attrs: mustprogress nounwind uwtable
define linkonce_odr hidden noundef ptr @_ZN4llvm8CastInfoINS_10VectorTypeEPNS_4TypeEvE6doCastERKS3_(ptr noundef nonnull align 8 dereferenceable(8) %0) #0 comdat align 2 {
  %2 = alloca ptr, align 8
  store ptr %0, ptr %2, align 8
  %3 = load ptr, ptr %2, align 8
  %4 = load ptr, ptr %3, align 8
  %5 = call noundef ptr @_ZN4llvm16cast_convert_valINS_10VectorTypeEPNS_4TypeES3_E4doitEPKS2_(ptr noundef %4)
  ret ptr %5
}

; Function Attrs: mustprogress nounwind uwtable
define linkonce_odr hidden void @_ZN4llvm5TwineC2Ev(ptr noundef nonnull align 8 dereferenceable(34) %0) unnamed_addr #0 comdat align 2 {
  %2 = alloca ptr, align 8
  store ptr %0, ptr %2, align 8
  %3 = load ptr, ptr %2, align 8
  %4 = getelementptr inbounds nuw %"class.llvm::Twine", ptr %3, i32 0, i32 2
  store i8 1, ptr %4, align 8
  %5 = getelementptr inbounds nuw %"class.llvm::Twine", ptr %3, i32 0, i32 3
  store i8 1, ptr %5, align 1
  ret void
}

; Function Attrs: mustprogress nounwind uwtable
define linkonce_odr hidden void @_ZN4llvm8ArrayRefIPNS_5ValueEEC2ILm2EEERAT__KS2_(ptr noundef nonnull align 8 dereferenceable(16) %0, ptr noundef nonnull align 8 dereferenceable(16) %1) unnamed_addr #0 comdat align 2 {
  %3 = alloca ptr, align 8
  %4 = alloca ptr, align 8
  store ptr %0, ptr %3, align 8
  store ptr %1, ptr %4, align 8
  %5 = load ptr, ptr %3, align 8
  %6 = getelementptr inbounds nuw %"class.llvm::ArrayRef.465", ptr %5, i32 0, i32 0
  %7 = load ptr, ptr %4, align 8
  %8 = getelementptr inbounds [2 x ptr], ptr %7, i64 0, i64 0
  store ptr %8, ptr %6, align 8
  %9 = getelementptr inbounds nuw %"class.llvm::ArrayRef.465", ptr %5, i32 0, i32 1
  store i64 2, ptr %9, align 8
  ret void
}

; Function Attrs: mustprogress nounwind uwtable
define linkonce_odr hidden noundef ptr @_ZN4llvm4castINS_10VectorTypeENS_4TypeEEEDcPT0_(ptr noundef %0) #0 comdat {
  %2 = alloca ptr, align 8
  store ptr %0, ptr %2, align 8
  %3 = call noundef ptr @_ZN4llvm8CastInfoINS_10VectorTypeEPNS_4TypeEvE6doCastERKS3_(ptr noundef nonnull align 8 dereferenceable(8) %2)
  ret ptr %3
}

; Function Attrs: mustprogress nounwind uwtable
define linkonce_odr hidden noundef ptr @_ZNK4llvm5Value7getTypeEv(ptr noundef nonnull align 8 dereferenceable(24) %0) #0 comdat align 2 {
  %2 = alloca ptr, align 8
  store ptr %0, ptr %2, align 8
  %3 = load ptr, ptr %2, align 8
  %4 = getelementptr inbounds nuw %"class.llvm::Value", ptr %3, i32 0, i32 4
  %5 = load ptr, ptr %4, align 8
  ret ptr %5
}

; Function Attrs: mustprogress nounwind uwtable
define linkonce_odr hidden noundef i32 @_ZN4llvm23getReductionIntrinsicIDENS_9RecurKindE(i32 noundef %0) #0 comdat {
  %2 = alloca i32, align 4
  %3 = alloca i32, align 4
  store i32 %0, ptr %3, align 4
  %4 = load i32, ptr %3, align 4
  switch i32 %4, label %5 [
    i32 1, label %6
    i32 2, label %7
    i32 4, label %8
    i32 3, label %9
    i32 5, label %10
    i32 16, label %11
    i32 10, label %11
    i32 11, label %12
    i32 7, label %13
    i32 6, label %14
    i32 9, label %15
    i32 8, label %16
    i32 13, label %17
    i32 12, label %18
    i32 15, label %19
    i32 14, label %20
  ]

5:                                                ; preds = %1
  unreachable

6:                                                ; preds = %1
  store i32 372, ptr %2, align 4
  br label %21

7:                                                ; preds = %1
  store i32 380, ptr %2, align 4
  br label %21

8:                                                ; preds = %1
  store i32 373, ptr %2, align 4
  br label %21

9:                                                ; preds = %1
  store i32 381, ptr %2, align 4
  br label %21

10:                                               ; preds = %1
  store i32 386, ptr %2, align 4
  br label %21

11:                                               ; preds = %1, %1
  store i32 374, ptr %2, align 4
  br label %21

12:                                               ; preds = %1
  store i32 379, ptr %2, align 4
  br label %21

13:                                               ; preds = %1
  store i32 382, ptr %2, align 4
  br label %21

14:                                               ; preds = %1
  store i32 383, ptr %2, align 4
  br label %21

15:                                               ; preds = %1
  store i32 384, ptr %2, align 4
  br label %21

16:                                               ; preds = %1
  store i32 385, ptr %2, align 4
  br label %21

17:                                               ; preds = %1
  store i32 375, ptr %2, align 4
  br label %21

18:                                               ; preds = %1
  store i32 377, ptr %2, align 4
  br label %21

19:                                               ; preds = %1
  store i32 376, ptr %2, align 4
  br label %21

20:                                               ; preds = %1
  store i32 378, ptr %2, align 4
  br label %21

21:                                               ; preds = %20, %19, %18, %17, %16, %15, %14, %13, %12, %11, %10, %9, %8, %7, %6
  %22 = load i32, ptr %2, align 4
  ret i32 %22
}

; Function Attrs: mustprogress nounwind uwtable
define dso_local noundef ptr @_ZN4llvm22createOrderedReductionERNS_13VectorBuilderERKNS_20RecurrenceDescriptorEPNS_5ValueES6_(ptr noundef nonnull align 8 dereferenceable(40) %0, ptr noundef nonnull align 8 dereferenceable(172) %1, ptr noundef %2, ptr noundef %3) #0 {
  %5 = alloca ptr, align 8
  %6 = alloca ptr, align 8
  %7 = alloca ptr, align 8
  %8 = alloca ptr, align 8
  %9 = alloca i32, align 4
  %10 = alloca ptr, align 8
  %11 = alloca [2 x ptr], align 16
  %12 = alloca %"class.llvm::ArrayRef.465", align 8
  %13 = alloca %"class.llvm::Twine", align 8
  store ptr %0, ptr %5, align 8
  store ptr %1, ptr %6, align 8
  store ptr %2, ptr %7, align 8
  store ptr %3, ptr %8, align 8
  %14 = call noundef i32 @_ZN4llvm23getReductionIntrinsicIDENS_9RecurKindE(i32 noundef 10)
  store i32 %14, ptr %9, align 4
  %15 = load ptr, ptr %7, align 8
  %16 = call noundef ptr @_ZNK4llvm5Value7getTypeEv(ptr noundef nonnull align 8 dereferenceable(24) %15)
  %17 = call noundef ptr @_ZN4llvm4castINS_10VectorTypeENS_4TypeEEEDcPT0_(ptr noundef %16)
  store ptr %17, ptr %10, align 8
  %18 = load ptr, ptr %8, align 8
  store ptr %18, ptr %11, align 8
  %19 = getelementptr inbounds ptr, ptr %11, i64 1
  %20 = load ptr, ptr %7, align 8
  store ptr %20, ptr %19, align 8
  %21 = load ptr, ptr %5, align 8
  %22 = load i32, ptr %9, align 4
  %23 = load ptr, ptr %10, align 8
  call void @_ZN4llvm8ArrayRefIPNS_5ValueEEC2ILm2EEERAT__KS2_(ptr noundef nonnull align 8 dereferenceable(16) %12, ptr noundef nonnull align 8 dereferenceable(16) %11)
  call void @_ZN4llvm5TwineC2Ev(ptr noundef nonnull align 8 dereferenceable(34) %13)
  %24 = getelementptr inbounds nuw { ptr, i64 }, ptr %12, i32 0, i32 0
  %25 = load ptr, ptr %24, align 8
  %26 = getelementptr inbounds nuw { ptr, i64 }, ptr %12, i32 0, i32 1
  %27 = load i64, ptr %26, align 8
  %28 = call noundef ptr @_ZN4llvm13VectorBuilder21createSimpleReductionEjPNS_4TypeENS_8ArrayRefIPNS_5ValueEEERKNS_5TwineE(ptr noundef nonnull align 8 dereferenceable(40) %21, i32 noundef %22, ptr noundef %23, ptr %25, i64 %27, ptr noundef nonnull align 8 dereferenceable(34) %13)
  ret ptr %28
}