; Function Attrs: mustprogress nounwind uwtable
define dso_local noundef ptr @_ZN4llvm22createOrderedReductionERNS_13VectorBuilderERKNS_20RecurrenceDescriptorEPNS_5ValueES6_(ptr noundef nonnull align 8 dereferenceable(40) %0, ptr nocapture noundef nonnull readnone align 8 dereferenceable(172) %1, ptr noundef %2, ptr noundef %3) local_unnamed_addr #0 {
  %5 = alloca [2 x ptr], align 16
  %6 = alloca %"class.llvm::Twine", align 8
  %7 = getelementptr inbounds nuw i8, ptr %2, i64 8
  %8 = load ptr, ptr %7, align 8
  store ptr %3, ptr %5, align 16
  %9 = getelementptr inbounds i8, ptr %5, i64 8
  store ptr %2, ptr %9, align 8
  %10 = getelementptr inbounds nuw i8, ptr %6, i64 32
  store i8 1, ptr %10, align 8
  %11 = getelementptr inbounds nuw i8, ptr %6, i64 33
  store i8 1, ptr %11, align 1
  %12 = call noundef ptr @_ZN4llvm13VectorBuilder21createSimpleReductionEjPNS_4TypeENS_8ArrayRefIPNS_5ValueEEERKNS_5TwineE(ptr noundef nonnull align 8 dereferenceable(40) %0, i32 noundef 374, ptr noundef %8, ptr nonnull %5, i64 2, ptr noundef nonnull align 8 dereferenceable(34) %6) #17
  ret ptr %12
}